; ModuleID = 'source-C-CXX/7/1204.c'
source_filename = "source-C-CXX/7/1204.c"
target datalayout = "e-m:e-p270:32:32-p271:32:32-p272:64:64-i64:64-f80:128-n8:16:32:64-S128"
target triple = "x86_64-pc-linux-gnu"

@.str = private unnamed_addr constant [3 x i8] c"%d\00", align 1
@.str.1 = private unnamed_addr constant [4 x i8] c"%d \00", align 1
@.str.2 = private unnamed_addr constant [4 x i8] c"%d\0A\00", align 1
@.str.3 = private unnamed_addr constant [6 x i8] c"%d %d\00", align 1

; Function Attrs: mustprogress nofree norecurse nosync nounwind readonly sspstrong uwtable willreturn
define dso_local i32 @compare(i8* nocapture readonly %0, i8* nocapture readonly %1) #0 {
  %3 = bitcast i8* %0 to i32*
  %4 = load i32, i32* %3, align 4, !tbaa !5
  %5 = bitcast i8* %1 to i32*
  %6 = load i32, i32* %5, align 4, !tbaa !5
  %7 = sub nsw i32 %4, %6
  ret i32 %7
}

; Function Attrs: nofree nounwind sspstrong uwtable
define dso_local void @Do(i32 %0, i32 %1) local_unnamed_addr #1 {
  %3 = zext i32 %0 to i64
  %4 = alloca i32, i64 %3, align 16
  %5 = zext i32 %1 to i64
  %6 = alloca i32, i64 %5, align 16
  %7 = icmp sgt i32 %0, 0
  br i1 %7, label %10, label %8

8:                                                ; preds = %10, %2
  %9 = icmp sgt i32 %1, 0
  br i1 %9, label %16, label %22

10:                                               ; preds = %2, %10
  %11 = phi i64 [ %14, %10 ], [ 0, %2 ]
  %12 = getelementptr inbounds i32, i32* %4, i64 %11
  %13 = call i32 (i8*, ...) @__isoc99_scanf(i8* getelementptr inbounds ([3 x i8], [3 x i8]* @.str, i64 0, i64 0), i32* nonnull %12)
  %14 = add nuw nsw i64 %11, 1
  %15 = icmp eq i64 %14, %3
  br i1 %15, label %8, label %10, !llvm.loop !9

16:                                               ; preds = %8, %16
  %17 = phi i64 [ %20, %16 ], [ 0, %8 ]
  %18 = getelementptr inbounds i32, i32* %6, i64 %17
  %19 = call i32 (i8*, ...) @__isoc99_scanf(i8* getelementptr inbounds ([3 x i8], [3 x i8]* @.str, i64 0, i64 0), i32* nonnull %18)
  %20 = add nuw nsw i64 %17, 1
  %21 = icmp eq i64 %20, %5
  br i1 %21, label %22, label %16, !llvm.loop !11

22:                                               ; preds = %16, %8
  %23 = bitcast i32* %4 to i8*
  %24 = sext i32 %0 to i64
  call void @qsort(i8* nonnull %23, i64 %24, i64 4, i32 (i8*, i8*)* nonnull @compare) #5
  %25 = bitcast i32* %6 to i8*
  %26 = sext i32 %1 to i64
  call void @qsort(i8* nonnull %25, i64 %26, i64 4, i32 (i8*, i8*)* nonnull @compare) #5
  br i1 %7, label %32, label %27

27:                                               ; preds = %32, %22
  %28 = add i32 %1, -1
  %29 = icmp sgt i32 %1, 1
  br i1 %29, label %30, label %46

30:                                               ; preds = %27
  %31 = zext i32 %28 to i64
  br label %39

32:                                               ; preds = %22, %32
  %33 = phi i64 [ %37, %32 ], [ 0, %22 ]
  %34 = getelementptr inbounds i32, i32* %4, i64 %33
  %35 = load i32, i32* %34, align 4, !tbaa !5
  %36 = call i32 (i8*, ...) @printf(i8* nonnull dereferenceable(1) getelementptr inbounds ([4 x i8], [4 x i8]* @.str.1, i64 0, i64 0), i32 %35)
  %37 = add nuw nsw i64 %33, 1
  %38 = icmp eq i64 %37, %3
  br i1 %38, label %27, label %32, !llvm.loop !12

39:                                               ; preds = %30, %39
  %40 = phi i64 [ 0, %30 ], [ %44, %39 ]
  %41 = getelementptr inbounds i32, i32* %6, i64 %40
  %42 = load i32, i32* %41, align 4, !tbaa !5
  %43 = call i32 (i8*, ...) @printf(i8* nonnull dereferenceable(1) getelementptr inbounds ([4 x i8], [4 x i8]* @.str.1, i64 0, i64 0), i32 %42)
  %44 = add nuw nsw i64 %40, 1
  %45 = icmp eq i64 %44, %31
  br i1 %45, label %46, label %39, !llvm.loop !13

46:                                               ; preds = %39, %27
  %47 = sext i32 %28 to i64
  %48 = getelementptr inbounds i32, i32* %6, i64 %47
  %49 = load i32, i32* %48, align 4, !tbaa !5
  %50 = call i32 (i8*, ...) @printf(i8* nonnull dereferenceable(1) getelementptr inbounds ([4 x i8], [4 x i8]* @.str.2, i64 0, i64 0), i32 %49)
  ret void
}

; Function Attrs: argmemonly mustprogress nofree nosync nounwind willreturn
declare void @llvm.lifetime.start.p0i8(i64 immarg, i8* nocapture) #2

; Function Attrs: nofree nounwind
declare noundef i32 @__isoc99_scanf(i8* nocapture noundef readonly, ...) local_unnamed_addr #3

; Function Attrs: nofree
declare void @qsort(i8* noundef, i64 noundef, i64 noundef, i32 (i8*, i8*)* nocapture noundef) local_unnamed_addr #4

; Function Attrs: nofree nounwind
declare noundef i32 @printf(i8* nocapture noundef readonly, ...) local_unnamed_addr #3

; Function Attrs: argmemonly mustprogress nofree nosync nounwind willreturn
declare void @llvm.lifetime.end.p0i8(i64 immarg, i8* nocapture) #2

; Function Attrs: nofree nounwind sspstrong uwtable
define dso_local i32 @main() local_unnamed_addr #1 {
  %1 = alloca i32, align 4
  %2 = alloca i32, align 4
  %3 = bitcast i32* %1 to i8*
  call void @llvm.lifetime.start.p0i8(i64 4, i8* nonnull %3) #5
  %4 = bitcast i32* %2 to i8*
  call void @llvm.lifetime.start.p0i8(i64 4, i8* nonnull %4) #5
  %5 = call i32 (i8*, ...) @__isoc99_scanf(i8* getelementptr inbounds ([6 x i8], [6 x i8]* @.str.3, i64 0, i64 0), i32* nonnull %1, i32* nonnull %2)
  %6 = load i32, i32* %1, align 4, !tbaa !5
  %7 = load i32, i32* %2, align 4, !tbaa !5
  call void @Do(i32 %6, i32 %7)
  call void @llvm.lifetime.end.p0i8(i64 4, i8* nonnull %4) #5
  call void @llvm.lifetime.end.p0i8(i64 4, i8* nonnull %3) #5
  ret i32 0
}


!llvm.module.flags = !{!0, !1, !2, !3}
!llvm.ident = !{!4}

!0 = !{i32 1, !"wchar_size", i32 4}
!1 = !{i32 7, !"PIC Level", i32 2}
!2 = !{i32 7, !"PIE Level", i32 2}
!3 = !{i32 7, !"uwtable", i32 1}
!4 = !{!"clang version 13.0.0"}
!5 = !{!6, !6, i64 0}
!6 = !{!"int", !7, i64 0}
!7 = !{!"omnipotent char", !8, i64 0}
!8 = !{!"Simple C/C++ TBAA"}
!9 = distinct !{!9, !10}
!10 = !{!"llvm.loop.mustprogress"}
!11 = distinct !{!11, !10}
!12 = distinct !{!12, !10}
!13 = distinct !{!13, !10}
